; ModuleID = 'source-C-CXX/23/224.c'
source_filename = "source-C-CXX/23/224.c"
target datalayout = "e-m:e-p270:32:32-p271:32:32-p272:64:64-i64:64-f80:128-n8:16:32:64-S128"
target triple = "x86_64-pc-linux-gnu"

@.str = private unnamed_addr constant [3 x i8] c"%c\00", align 1
@.str.1 = private unnamed_addr constant [7 x i8] c"%s\0A%s\0A\00", align 1

; Function Attrs: nofree nounwind sspstrong uwtable
define dso_local void @main() local_unnamed_addr #0 {
  %1 = alloca i8, align 1
  %2 = alloca [200 x i8], align 16
  %3 = alloca [51 x [200 x i8]], align 16
  call void @llvm.lifetime.start.p0i8(i64 1, i8* nonnull %1) #5
  %4 = getelementptr inbounds [200 x i8], [200 x i8]* %2, i64 0, i64 0
  call void @llvm.lifetime.start.p0i8(i64 200, i8* nonnull %4) #5
  %5 = getelementptr inbounds [51 x [200 x i8]], [51 x [200 x i8]]* %3, i64 0, i64 0, i64 0
  call void @llvm.lifetime.start.p0i8(i64 10200, i8* nonnull %5) #5
  %6 = call i32 (i8*, ...) @__isoc99_scanf(i8* getelementptr inbounds ([3 x i8], [3 x i8]* @.str, i64 0, i64 0), i8* nonnull %1)
  %7 = load i8, i8* %1, align 1, !tbaa !5
  %8 = icmp eq i8 %7, 10
  br i1 %8, label %12, label %19

9:                                                ; preds = %31, %36
  %10 = trunc i64 %22 to i32
  %11 = icmp ugt i32 %10, 1
  br i1 %11, label %15, label %12

12:                                               ; preds = %0, %9
  %13 = phi i64 [ %22, %9 ], [ 0, %0 ]
  %14 = and i64 %13, 4294967295
  br label %61

15:                                               ; preds = %9
  %16 = add nuw i64 %20, 2
  %17 = and i64 %22, 4294967295
  %18 = and i64 %16, 4294967295
  br label %43

19:                                               ; preds = %0, %36
  %20 = phi i64 [ %22, %36 ], [ 0, %0 ]
  %21 = phi i8 [ %38, %36 ], [ %7, %0 ]
  %22 = add nuw nsw i64 %20, 1
  %23 = getelementptr inbounds [51 x [200 x i8]], [51 x [200 x i8]]* %3, i64 0, i64 %22, i64 0
  store i8 %21, i8* %23, align 8, !tbaa !5
  br label %24

24:                                               ; preds = %28, %19
  %25 = phi i64 [ %29, %28 ], [ 0, %19 ]
  %26 = call i32 (i8*, ...) @__isoc99_scanf(i8* getelementptr inbounds ([3 x i8], [3 x i8]* @.str, i64 0, i64 0), i8* nonnull %1)
  %27 = load i8, i8* %1, align 1, !tbaa !5
  switch i8 %27, label %28 [
    i8 32, label %31
    i8 10, label %31
  ]

28:                                               ; preds = %24
  %29 = add nuw i64 %25, 1
  %30 = getelementptr inbounds [51 x [200 x i8]], [51 x [200 x i8]]* %3, i64 0, i64 %22, i64 %29
  store i8 %27, i8* %30, align 1, !tbaa !5
  br label %24, !llvm.loop !8

31:                                               ; preds = %24, %24
  %32 = add i64 %25, 1
  %33 = and i64 %32, 4294967295
  %34 = getelementptr inbounds [51 x [200 x i8]], [51 x [200 x i8]]* %3, i64 0, i64 %22, i64 %33
  store i8 0, i8* %34, align 1, !tbaa !5
  %35 = icmp eq i8 %27, 10
  br i1 %35, label %9, label %36

36:                                               ; preds = %31
  %37 = call i32 (i8*, ...) @__isoc99_scanf(i8* getelementptr inbounds ([3 x i8], [3 x i8]* @.str, i64 0, i64 0), i8* nonnull %1)
  %38 = load i8, i8* %1, align 1, !tbaa !5
  %39 = icmp eq i8 %38, 10
  br i1 %39, label %9, label %19, !llvm.loop !10

40:                                               ; preds = %58
  %41 = add nuw nsw i64 %45, 1
  %42 = icmp eq i64 %46, %17
  br i1 %42, label %61, label %43, !llvm.loop !11

43:                                               ; preds = %40, %15
  %44 = phi i64 [ 1, %15 ], [ %46, %40 ]
  %45 = phi i64 [ 2, %15 ], [ %41, %40 ]
  %46 = add nuw nsw i64 %44, 1
  %47 = getelementptr inbounds [51 x [200 x i8]], [51 x [200 x i8]]* %3, i64 0, i64 %44, i64 0
  br label %48

48:                                               ; preds = %43, %58
  %49 = phi i64 [ %45, %43 ], [ %59, %58 ]
  %50 = call i64 @strlen(i8* noundef nonnull %47) #6
  %51 = getelementptr inbounds [51 x [200 x i8]], [51 x [200 x i8]]* %3, i64 0, i64 %49, i64 0
  %52 = call i64 @strlen(i8* noundef nonnull %51) #6
  %53 = icmp ugt i64 %50, %52
  br i1 %53, label %58, label %54

54:                                               ; preds = %48
  %55 = call i8* @strcpy(i8* noundef nonnull %4, i8* noundef nonnull %47) #5
  %56 = call i8* @strcpy(i8* noundef nonnull %47, i8* noundef nonnull %51) #5
  %57 = call i8* @strcpy(i8* noundef nonnull %51, i8* noundef nonnull %4) #5
  br label %58

58:                                               ; preds = %48, %54
  %59 = add nuw nsw i64 %49, 1
  %60 = icmp eq i64 %59, %18
  br i1 %60, label %40, label %48, !llvm.loop !12

61:                                               ; preds = %40, %12
  %62 = phi i64 [ %14, %12 ], [ %17, %40 ]
  %63 = getelementptr inbounds [51 x [200 x i8]], [51 x [200 x i8]]* %3, i64 0, i64 1, i64 0
  %64 = getelementptr inbounds [51 x [200 x i8]], [51 x [200 x i8]]* %3, i64 0, i64 %62, i64 0
  %65 = call i32 (i8*, ...) @printf(i8* nonnull dereferenceable(1) getelementptr inbounds ([7 x i8], [7 x i8]* @.str.1, i64 0, i64 0), i8* nonnull %63, i8* nonnull %64)
  call void @llvm.lifetime.end.p0i8(i64 10200, i8* nonnull %5) #5
  call void @llvm.lifetime.end.p0i8(i64 200, i8* nonnull %4) #5
  call void @llvm.lifetime.end.p0i8(i64 1, i8* nonnull %1) #5
  ret void
}

; Function Attrs: argmemonly mustprogress nofree nosync nounwind willreturn
declare void @llvm.lifetime.start.p0i8(i64 immarg, i8* nocapture) #1

; Function Attrs: nofree nounwind
declare noundef i32 @__isoc99_scanf(i8* nocapture noundef readonly, ...) local_unnamed_addr #2

; Function Attrs: argmemonly mustprogress nofree nounwind readonly willreturn
declare i64 @strlen(i8* nocapture) local_unnamed_addr #3

; Function Attrs: argmemonly mustprogress nofree nounwind willreturn
declare i8* @strcpy(i8* noalias returned writeonly, i8* noalias nocapture readonly) local_unnamed_addr #4

; Function Attrs: nofree nounwind
declare noundef i32 @printf(i8* nocapture noundef readonly, ...) local_unnamed_addr #2

; Function Attrs: argmemonly mustprogress nofree nosync nounwind willreturn
declare void @llvm.lifetime.end.p0i8(i64 immarg, i8* nocapture) #1


!llvm.module.flags = !{!0, !1, !2, !3}
!llvm.ident = !{!4}

!0 = !{i32 1, !"wchar_size", i32 4}
!1 = !{i32 7, !"PIC Level", i32 2}
!2 = !{i32 7, !"PIE Level", i32 2}
!3 = !{i32 7, !"uwtable", i32 1}
!4 = !{!"clang version 13.0.0"}
!5 = !{!6, !6, i64 0}
!6 = !{!"omnipotent char", !7, i64 0}
!7 = !{!"Simple C/C++ TBAA"}
!8 = distinct !{!8, !9}
!9 = !{!"llvm.loop.mustprogress"}
!10 = distinct !{!10, !9}
!11 = distinct !{!11, !9}
!12 = distinct !{!12, !9}
